	.arch armv7-a
	.fpu softvfp
	.eabi_attribute 20, 1
	.eabi_attribute 21, 1
	.eabi_attribute 23, 3
	.eabi_attribute 24, 1
	.eabi_attribute 25, 1
	.eabi_attribute 26, 2
	.eabi_attribute 30, 6
	.eabi_attribute 34, 1
	.eabi_attribute 18, 4
	.file	"arm_abi_runtime.c"
	.text
.Ltext0:
	.cfi_sections	.debug_frame
	.section	.rodata
	.align	2
.LC0:
	.ascii	"GCC Runtime Raise 3\012\012\000"
	.text
	.align	2
	.global	__aeabi_unwind_cpp_pr0
	.syntax unified
	.thumb
	.thumb_func
	.type	__aeabi_unwind_cpp_pr0, %function
__aeabi_unwind_cpp_pr0:
.LFB0:
	.file 1 "/home/dtc34/Documents/P35/pvp11/vhls/images/arm_abi_runtime.c"
	.loc 1 13 0
	.cfi_startproc
	@ args = 0, pretend = 0, frame = 0
	@ frame_needed = 1, uses_anonymous_args = 0
	push	{r7, lr}
	.cfi_def_cfa_offset 8
	.cfi_offset 7, -8
	.cfi_offset 14, -4
	add	r7, sp, #0
	.cfi_def_cfa_register 7
	.loc 1 14 0
	movw	r0, #:lower16:.LC0
	movt	r0, #:upper16:.LC0
	bl	printf
	.loc 1 15 0
	nop
	pop	{r7, pc}
	.cfi_endproc
.LFE0:
	.size	__aeabi_unwind_cpp_pr0, .-__aeabi_unwind_cpp_pr0
	.section	.rodata
	.align	2
.LC1:
	.ascii	"GCC Runtime Raise 2\012\012\000"
	.text
	.align	2
	.global	__stack_chk_guard
	.syntax unified
	.thumb
	.thumb_func
	.type	__stack_chk_guard, %function
__stack_chk_guard:
.LFB1:
	.loc 1 17 0
	.cfi_startproc
	@ args = 0, pretend = 0, frame = 0
	@ frame_needed = 1, uses_anonymous_args = 0
	push	{r7, lr}
	.cfi_def_cfa_offset 8
	.cfi_offset 7, -8
	.cfi_offset 14, -4
	add	r7, sp, #0
	.cfi_def_cfa_register 7
	.loc 1 18 0
	movw	r0, #:lower16:.LC1
	movt	r0, #:upper16:.LC1
	bl	printf
	.loc 1 19 0
	nop
	pop	{r7, pc}
	.cfi_endproc
.LFE1:
	.size	__stack_chk_guard, .-__stack_chk_guard
	.section	.rodata
	.align	2
.LC2:
	.ascii	"GCC Runtime Raise 1\012\012\000"
	.text
	.align	2
	.global	__stack_chk_fail
	.syntax unified
	.thumb
	.thumb_func
	.type	__stack_chk_fail, %function
__stack_chk_fail:
.LFB2:
	.loc 1 21 0
	.cfi_startproc
	@ args = 0, pretend = 0, frame = 0
	@ frame_needed = 1, uses_anonymous_args = 0
	push	{r7, lr}
	.cfi_def_cfa_offset 8
	.cfi_offset 7, -8
	.cfi_offset 14, -4
	add	r7, sp, #0
	.cfi_def_cfa_register 7
	.loc 1 22 0
	movw	r0, #:lower16:.LC2
	movt	r0, #:upper16:.LC2
	bl	printf
	.loc 1 23 0
	nop
	pop	{r7, pc}
	.cfi_endproc
.LFE2:
	.size	__stack_chk_fail, .-__stack_chk_fail
	.section	.rodata
	.align	2
.LC3:
	.ascii	"GCC Runtime Raise 0\012\012\000"
	.text
	.align	2
	.global	raise
	.syntax unified
	.thumb
	.thumb_func
	.type	raise, %function
raise:
.LFB3:
	.loc 1 27 0
	.cfi_startproc
	@ args = 0, pretend = 0, frame = 0
	@ frame_needed = 1, uses_anonymous_args = 0
	push	{r7, lr}
	.cfi_def_cfa_offset 8
	.cfi_offset 7, -8
	.cfi_offset 14, -4
	add	r7, sp, #0
	.cfi_def_cfa_register 7
	.loc 1 28 0
	movw	r0, #:lower16:.LC3
	movt	r0, #:upper16:.LC3
	bl	printf
	.loc 1 29 0
	nop
	pop	{r7, pc}
	.cfi_endproc
.LFE3:
	.size	raise, .-raise
.Letext0:
	.section	.note.GNU-stack,"",%progbits
